target datalayout = "e-m:e-p270:32:32-p271:32:32-p272:64:64-i64:64-i128:128-f80:128-n8:16:32:64-S128"
target triple = "x86_64-pc-linux-gnu"

@.str.226 = private unnamed_addr constant [23 x i8] c"noisy placement delete\00", align 1

; Function Attrs: mustprogress nounwind uwtable
define internal void @_ZZ35test_submodule_factory_constructorsRN8pybind117module_EEN10NoisyAllocdlEPvS3_(ptr noundef %0, ptr noundef %1) #0 align 2 personality ptr @__gxx_personality_v0 {
  %3 = alloca ptr, align 8
  %4 = alloca ptr, align 8
  store ptr %0, ptr %3, align 8
  store ptr %1, ptr %4, align 8
  invoke void @_ZN8pybind115printILNS_19return_value_policyE1EJRA23_KcEEEvDpOT0_(ptr noundef nonnull align 1 dereferenceable(23) @.str.226)
          to label %5 unwind label %6

5:                                                ; preds = %2
  ret void

6:                                                ; preds = %2
  %7 = landingpad { ptr, i32 }
          catch ptr null
  %8 = extractvalue { ptr, i32 } %7, 0
  call void @__clang_call_terminate(ptr %8) #20
  unreachable
}