; Function Attrs: mustprogress nounwind uwtable
define internal fastcc void @_ZZ35test_submodule_factory_constructorsRN8pybind117module_EEN10NoisyAllocdlEPvS3_() unnamed_addr #0 align 2 personality ptr @__gxx_personality_v0 {
  invoke void @_ZN8pybind115printILNS_19return_value_policyE1EJRA23_KcEEEvDpOT0_(ptr noundef nonnull align 1 dereferenceable(23) @.str.226)
          to label %1 unwind label %2

1:                                                ; preds = %0
  ret void

2:                                                ; preds = %0
  %3 = landingpad { ptr, i32 }
          catch ptr null
  %4 = extractvalue { ptr, i32 } %3, 0
  tail call void @__clang_call_terminate(ptr %4) #24
  unreachable
}